target datalayout = "e-m:e-p270:32:32-p271:32:32-p272:64:64-i64:64-i128:128-f80:128-n8:16:32:64-S128"
target triple = "x86_64-unknown-linux-gnu"

%struct.LSIState = type { %struct.PCIDevice, ptr, %struct.MemoryRegion, %struct.MemoryRegion, %struct.MemoryRegion, %struct.AddressSpace, i32, i32, i32, i32, [8 x i8], i32, %struct.SCSIBus, i32, i32, i32, %union.anon.4, ptr, i32, i32, i32, i32, i8, i8, i8, i8, i8, i8, i8, i8, i8, i8, i8, i8, i8, i8, i8, i8, i8, i8, i32, i32, i8, i8, i8, i8, i8, i8, i8, i8, i8, i8, i8, i8, i8, i8, i8, i8, i8, i8, i8, i8, i8, i8, i32, i32, i32, i32, i32, i32, i32, i32, i32, i32, i32, i32, i32, i32, [18 x i32], i8, i32, [8192 x i8] }
%struct.PCIDevice = type { %struct.DeviceState, i8, i8, ptr, ptr, ptr, ptr, ptr, i32, %struct.PCIReqIDCache, [64 x i8], [7 x %struct.PCIIORegion], %struct.AddressSpace, %struct.MemoryRegion, %struct.MemoryRegion, ptr, ptr, [3 x ptr], i8, i8, i32, i8, i32, ptr, ptr, ptr, ptr, ptr, ptr, %struct.MemoryRegion, %struct.MemoryRegion, %struct.MemoryRegion, ptr, i8, i32, i8, %struct.PCIExpressDevice, ptr, ptr, i32, i8, %struct.MemoryRegion, i32, ptr, ptr, ptr, ptr, ptr, i32 }
%struct.DeviceState = type { %struct.Object, ptr, ptr, i8, i8, i64, ptr, i32, i8, ptr, %struct.NamedGPIOListHead, %struct.NamedClockListHead, %struct.BusStateHead, i32, i32, i32, %struct.ResettableState, ptr, %struct.MemReentrancyGuard }
%struct.Object = type { ptr, ptr, ptr, i32, ptr }
%struct.NamedGPIOListHead = type { ptr }
%struct.NamedClockListHead = type { ptr }
%struct.BusStateHead = type { ptr }
%struct.ResettableState = type { i32, i8, i8 }
%struct.MemReentrancyGuard = type { i8 }
%struct.PCIReqIDCache = type { ptr, i32 }
%struct.PCIIORegion = type { i64, i64, i8, ptr, ptr }
%struct.PCIExpressDevice = type { i8, i8, i8, i16, %struct.PCIEAERLog, i16, i16, i16, %struct.PCIESriovPF, %struct.PCIESriovVF }
%struct.PCIEAERLog = type { i16, i16, ptr }
%struct.PCIESriovPF = type { i16, [7 x i8], ptr, ptr }
%struct.PCIESriovVF = type { ptr, i16 }
%struct.MemoryRegion = type { %struct.Object, i8, i8, i8, i8, i8, i8, i8, i8, i8, i8, ptr, ptr, ptr, ptr, ptr, ptr, i32, i128, i64, ptr, i64, i8, i8, i8, i8, i8, ptr, i64, i32, %union.anon.1, %union.anon.2, %union.anon.3, ptr, i32, ptr, ptr, i8 }
%union.anon.1 = type { %struct.QTailQLink }
%struct.QTailQLink = type { ptr, ptr }
%union.anon.2 = type { %struct.QTailQLink }
%union.anon.3 = type { %struct.QTailQLink }
%struct.AddressSpace = type { %struct.rcu_head, ptr, ptr, ptr, i32, i32, ptr, %union.anon, %union.anon.0 }
%struct.rcu_head = type { ptr, ptr }
%union.anon = type { %struct.QTailQLink }
%union.anon.0 = type { %struct.QTailQLink }
%struct.SCSIBus = type { %struct.BusState, i32, %struct.SCSISense, ptr, i32 }
%struct.BusState = type { %struct.Object, ptr, ptr, ptr, i32, i8, i8, i32, %union.BusChildHead, %struct.BusStateEntry, %struct.ResettableState }
%union.BusChildHead = type { %struct.QTailQLink }
%struct.BusStateEntry = type { ptr, ptr }
%struct.SCSISense = type { i8, i8, i8 }
%union.anon.4 = type { %struct.QTailQLink }
%struct.lsi_request = type { ptr, i32, i32, ptr, i32, i32, %union.anon.6 }
%union.anon.6 = type { %struct.QTailQLink }
%struct.SCSIRequest = type { ptr, ptr, ptr, i32, i32, i32, i16, i16, ptr, i64, %struct.SCSICommand, %struct.NotifierList, [252 x i8], i32, i8, i8, i8, i8, ptr, ptr, %union.anon.8 }
%struct.SCSICommand = type { [16 x i8], i32, i64, i64, i32 }
%struct.NotifierList = type { %struct.anon.7 }
%struct.anon.7 = type { ptr }
%union.anon.8 = type { %struct.QTailQLink }

@.str = private unnamed_addr constant [11 x i8] c"lsi53c895a\00", align 1
@.str.11 = private unnamed_addr constant [29 x i8] c"../qemu/hw/scsi/lsi53c895a.c\00", align 1
@__func__.LSI53C895A = private unnamed_addr constant [11 x i8] c"LSI53C895A\00", align 1

; Function Attrs: nounwind sspstrong uwtable
define internal void @lsi_request_free(ptr noundef %s, ptr noundef %p) #0 {
entry:
  %s.addr = alloca ptr, align 8
  %p.addr = alloca ptr, align 8
  store ptr %s, ptr %s.addr, align 8
  store ptr %p, ptr %p.addr, align 8
  %0 = load ptr, ptr %p.addr, align 8
  %1 = load ptr, ptr %s.addr, align 8
  %current = getelementptr inbounds %struct.LSIState, ptr %1, i32 0, i32 17
  %2 = load ptr, ptr %current, align 8
  %cmp = icmp eq ptr %0, %2
  br i1 %cmp, label %if.then, label %if.else

if.then:                                          ; preds = %entry
  %3 = load ptr, ptr %s.addr, align 8
  %current1 = getelementptr inbounds %struct.LSIState, ptr %3, i32 0, i32 17
  store ptr null, ptr %current1, align 8
  br label %if.end20

if.else:                                          ; preds = %entry
  br label %do.body

do.body:                                          ; preds = %if.else
  %4 = load ptr, ptr %p.addr, align 8
  %next = getelementptr inbounds %struct.lsi_request, ptr %4, i32 0, i32 6
  %5 = load ptr, ptr %next, align 8
  %cmp2 = icmp ne ptr %5, null
  br i1 %cmp2, label %if.then3, label %if.else8

if.then3:                                         ; preds = %do.body
  %6 = load ptr, ptr %p.addr, align 8
  %next4 = getelementptr inbounds %struct.lsi_request, ptr %6, i32 0, i32 6
  %tql_prev = getelementptr inbounds %struct.QTailQLink, ptr %next4, i32 0, i32 1
  %7 = load ptr, ptr %tql_prev, align 8
  %8 = load ptr, ptr %p.addr, align 8
  %next5 = getelementptr inbounds %struct.lsi_request, ptr %8, i32 0, i32 6
  %9 = load ptr, ptr %next5, align 8
  %next6 = getelementptr inbounds %struct.lsi_request, ptr %9, i32 0, i32 6
  %tql_prev7 = getelementptr inbounds %struct.QTailQLink, ptr %next6, i32 0, i32 1
  store ptr %7, ptr %tql_prev7, align 8
  br label %if.end

if.else8:                                         ; preds = %do.body
  %10 = load ptr, ptr %p.addr, align 8
  %next9 = getelementptr inbounds %struct.lsi_request, ptr %10, i32 0, i32 6
  %tql_prev10 = getelementptr inbounds %struct.QTailQLink, ptr %next9, i32 0, i32 1
  %11 = load ptr, ptr %tql_prev10, align 8
  %12 = load ptr, ptr %s.addr, align 8
  %queue = getelementptr inbounds %struct.LSIState, ptr %12, i32 0, i32 16
  %tql_prev11 = getelementptr inbounds %struct.QTailQLink, ptr %queue, i32 0, i32 1
  store ptr %11, ptr %tql_prev11, align 8
  br label %if.end

if.end:                                           ; preds = %if.else8, %if.then3
  %13 = load ptr, ptr %p.addr, align 8
  %next12 = getelementptr inbounds %struct.lsi_request, ptr %13, i32 0, i32 6
  %14 = load ptr, ptr %next12, align 8
  %15 = load ptr, ptr %p.addr, align 8
  %next13 = getelementptr inbounds %struct.lsi_request, ptr %15, i32 0, i32 6
  %tql_prev14 = getelementptr inbounds %struct.QTailQLink, ptr %next13, i32 0, i32 1
  %16 = load ptr, ptr %tql_prev14, align 8
  %tql_next = getelementptr inbounds %struct.QTailQLink, ptr %16, i32 0, i32 0
  store ptr %14, ptr %tql_next, align 8
  %17 = load ptr, ptr %p.addr, align 8
  %next15 = getelementptr inbounds %struct.lsi_request, ptr %17, i32 0, i32 6
  %tql_prev16 = getelementptr inbounds %struct.QTailQLink, ptr %next15, i32 0, i32 1
  store ptr null, ptr %tql_prev16, align 8
  %18 = load ptr, ptr %p.addr, align 8
  %next17 = getelementptr inbounds %struct.lsi_request, ptr %18, i32 0, i32 6
  %tql_next18 = getelementptr inbounds %struct.QTailQLink, ptr %next17, i32 0, i32 0
  store ptr null, ptr %tql_next18, align 8
  %19 = load ptr, ptr %p.addr, align 8
  %next19 = getelementptr inbounds %struct.lsi_request, ptr %19, i32 0, i32 6
  store ptr null, ptr %next19, align 8
  br label %do.end

do.end:                                           ; preds = %if.end
  br label %if.end20

if.end20:                                         ; preds = %do.end, %if.then
  %20 = load ptr, ptr %p.addr, align 8
  call void @g_free(ptr noundef %20)
  ret void
}

; Function Attrs: nounwind sspstrong uwtable
define internal ptr @LSI53C895A(ptr noundef %obj) #0 {
entry:
  %obj.addr = alloca ptr, align 8
  store ptr %obj, ptr %obj.addr, align 8
  %0 = load ptr, ptr %obj.addr, align 8
  %call = call ptr @object_dynamic_cast_assert(ptr noundef %0, ptr noundef @.str, ptr noundef @.str.11, i32 noundef 312, ptr noundef @__func__.LSI53C895A)
  ret ptr %call
}

; Function Attrs: nounwind sspstrong uwtable
define internal void @lsi_request_cancelled(ptr noundef %req) #0 {
entry:
  %req.addr = alloca ptr, align 8
  %s = alloca ptr, align 8
  %p = alloca ptr, align 8
  store ptr %req, ptr %req.addr, align 8
  %0 = load ptr, ptr %req.addr, align 8
  %bus = getelementptr inbounds %struct.SCSIRequest, ptr %0, i32 0, i32 0
  %1 = load ptr, ptr %bus, align 8
  %qbus = getelementptr inbounds %struct.SCSIBus, ptr %1, i32 0, i32 0
  %parent = getelementptr inbounds %struct.BusState, ptr %qbus, i32 0, i32 1
  %2 = load ptr, ptr %parent, align 8
  %call = call ptr @LSI53C895A(ptr noundef %2)
  store ptr %call, ptr %s, align 8
  %3 = load ptr, ptr %req.addr, align 8
  %hba_private = getelementptr inbounds %struct.SCSIRequest, ptr %3, i32 0, i32 8
  %4 = load ptr, ptr %hba_private, align 8
  store ptr %4, ptr %p, align 8
  %5 = load ptr, ptr %req.addr, align 8
  %hba_private1 = getelementptr inbounds %struct.SCSIRequest, ptr %5, i32 0, i32 8
  store ptr null, ptr %hba_private1, align 8
  %6 = load ptr, ptr %s, align 8
  %7 = load ptr, ptr %p, align 8
  call void @lsi_request_free(ptr noundef %6, ptr noundef %7)
  %8 = load ptr, ptr %req.addr, align 8
  call void @scsi_req_unref(ptr noundef %8)
  ret void
}