; Function Attrs: nounwind sspstrong uwtable
define internal void @lsi_request_cancelled(ptr noundef %req) #0 {
entry:
  %0 = load ptr, ptr %req, align 8
  %parent = getelementptr inbounds nuw i8, ptr %0, i64 40
  %1 = load ptr, ptr %parent, align 8
  %call.i = tail call ptr @object_dynamic_cast_assert(ptr noundef %1, ptr noundef nonnull @.str, ptr noundef nonnull @.str.11, i32 noundef 312, ptr noundef nonnull @__func__.LSI53C895A) #12
  %hba_private = getelementptr inbounds nuw i8, ptr %req, i64 40
  %2 = load ptr, ptr %hba_private, align 8
  store ptr null, ptr %hba_private, align 8
  %current.i = getelementptr inbounds nuw i8, ptr %call.i, i64 3736
  %3 = load ptr, ptr %current.i, align 8
  %cmp.i = icmp eq ptr %2, %3
  br i1 %cmp.i, label %if.then.i, label %do.body.i

if.then.i:                                        ; preds = %entry
  store ptr null, ptr %current.i, align 8
  br label %lsi_request_free.exit

do.body.i:                                        ; preds = %entry
  %next.i = getelementptr inbounds nuw i8, ptr %2, i64 32
  %4 = load ptr, ptr %next.i, align 8
  %cmp2.not.i = icmp eq ptr %4, null
  %tql_prev10.i = getelementptr inbounds nuw i8, ptr %2, i64 40
  %5 = load ptr, ptr %tql_prev10.i, align 8
  br i1 %cmp2.not.i, label %if.else8.i, label %if.then3.i

if.then3.i:                                       ; preds = %do.body.i
  %tql_prev7.i = getelementptr inbounds nuw i8, ptr %4, i64 40
  store ptr %5, ptr %tql_prev7.i, align 8
  br label %if.end.i

if.else8.i:                                       ; preds = %do.body.i
  %tql_prev11.i = getelementptr inbounds nuw i8, ptr %call.i, i64 3728
  store ptr %5, ptr %tql_prev11.i, align 8
  br label %if.end.i

if.end.i:                                         ; preds = %if.else8.i, %if.then3.i
  %6 = load ptr, ptr %next.i, align 8
  store ptr %6, ptr %5, align 8
  tail call void @llvm.memset.p0.i64(ptr noundef nonnull align 8 dereferenceable(16) %next.i, i8 0, i64 16, i1 false)
  br label %lsi_request_free.exit

lsi_request_free.exit:                            ; preds = %if.then.i, %if.end.i
  tail call void @g_free(ptr noundef %2) #12
  tail call void @scsi_req_unref(ptr noundef nonnull %req) #12
  ret void
}